target datalayout = "e-m:e-p270:32:32-p271:32:32-p272:64:64-i64:64-i128:128-f80:128-n8:16:32:64-S128"
target triple = "x86_64-pc-linux-gnu"

@.str.164 = private unnamed_addr constant [51 x i8] c"DEBUGGING: JDWP pause for PID %d, THREAD %d (0x%x)\00", align 1
@p = internal global i32 1, align 4
@.str.165 = private unnamed_addr constant [56 x i8] c"DEBUGGING: JDWP pause got tired of waiting and gave up.\00", align 1

; Function Attrs: nounwind uwtable
define hidden void @do_pause() #0 {
  %1 = alloca i64, align 8
  %2 = alloca i32, align 4
  %3 = alloca i32, align 4
  %4 = alloca i32, align 4
  %5 = call i64 @pthread_self() #8
  store i64 %5, ptr %1, align 8
  %6 = call i32 @getpid() #6
  store i32 %6, ptr %2, align 4
  store i32 600, ptr %3, align 4
  store i32 10, ptr %4, align 4
  %7 = load i32, ptr %2, align 4
  %8 = sext i32 %7 to i64
  %9 = trunc i64 %8 to i32
  %10 = load i64, ptr %1, align 8
  %11 = trunc i64 %10 to i32
  %12 = load i64, ptr %1, align 8
  %13 = trunc i64 %12 to i32
  call void (ptr, ...) @tty_message(ptr noundef @.str.164, i32 noundef %9, i32 noundef %11, i32 noundef %13)
  br label %14

14:                                               ; preds = %22, %0
  %15 = load i32, ptr @p, align 4
  %16 = icmp ne i32 %15, 0
  br i1 %16, label %17, label %20

17:                                               ; preds = %14
  %18 = load i32, ptr %3, align 4
  %19 = icmp sgt i32 %18, 0
  br label %20

20:                                               ; preds = %17, %14
  %21 = phi i1 [ false, %14 ], [ %19, %17 ]
  br i1 %21, label %22, label %28

22:                                               ; preds = %20
  %23 = load i32, ptr %4, align 4
  %24 = call i32 @sleep(i32 noundef %23)
  %25 = load i32, ptr %4, align 4
  %26 = load i32, ptr %3, align 4
  %27 = sub nsw i32 %26, %25
  store i32 %27, ptr %3, align 4
  br label %14, !llvm.loop !6

28:                                               ; preds = %20
  %29 = load i32, ptr %3, align 4
  %30 = icmp sle i32 %29, 0
  br i1 %30, label %31, label %32

31:                                               ; preds = %28
  call void (ptr, ...) @tty_message(ptr noundef @.str.165)
  br label %32

32:                                               ; preds = %31, %28
  ret void
}