; Function Attrs: nounwind uwtable
define hidden void @do_pause() local_unnamed_addr #0 {
  %1 = tail call i64 @pthread_self() #12
  %2 = tail call i32 @getpid() #9
  %3 = trunc i64 %1 to i32
  tail call void (ptr, ...) @tty_message(ptr noundef nonnull @.str.164, i32 noundef %2, i32 noundef %3, i32 noundef %3)
  br label %4

4:                                                ; preds = %0, %4
  %.08 = phi i32 [ 600, %0 ], [ %6, %4 ]
  %5 = tail call i32 @sleep(i32 noundef 10) #9
  %6 = add nsw i32 %.08, -10
  %7 = icmp ugt i32 %.08, 10
  br i1 %7, label %4, label %8, !llvm.loop !6

8:                                                ; preds = %4
  tail call void (ptr, ...) @tty_message(ptr noundef nonnull @.str.165)
  ret void
}